target datalayout = "e-m:e-p270:32:32-p271:32:32-p272:64:64-i64:64-i128:128-f80:128-n8:16:32:64-S128"
target triple = "x86_64-pc-linux-gnu"

%struct.MvcCoverStruct = type { i32, i32, i32, %struct.MvcListStruct, ptr, i32, ptr, ptr, ptr }
%struct.MvcListStruct = type { ptr, ptr, i32 }
%struct.MvcCubeStruct = type { ptr, i32, i32, [1 x i32] }

; Function Attrs: nounwind uwtable
define void @Mvc_CoverMakeEmpty(ptr noundef %0) #0 {
  %2 = alloca ptr, align 8
  %3 = alloca ptr, align 8
  %4 = alloca ptr, align 8
  store ptr %0, ptr %2, align 8, !tbaa !3
  call void @llvm.lifetime.start.p0(i64 8, ptr %3) #4
  call void @llvm.lifetime.start.p0(i64 8, ptr %4) #4
  %5 = load ptr, ptr %2, align 8, !tbaa !3
  %6 = getelementptr inbounds nuw %struct.MvcCoverStruct, ptr %5, i32 0, i32 3
  %7 = getelementptr inbounds nuw %struct.MvcListStruct, ptr %6, i32 0, i32 0
  %8 = load ptr, ptr %7, align 8, !tbaa !18
  store ptr %8, ptr %3, align 8, !tbaa !26
  %9 = load ptr, ptr %3, align 8, !tbaa !26
  %10 = icmp ne ptr %9, null
  br i1 %10, label %11, label %15

11:                                               ; preds = %1
  %12 = load ptr, ptr %3, align 8, !tbaa !26
  %13 = getelementptr inbounds nuw %struct.MvcCubeStruct, ptr %12, i32 0, i32 0
  %14 = load ptr, ptr %13, align 8, !tbaa !30
  br label %16

15:                                               ; preds = %1
  br label %16

16:                                               ; preds = %15, %11
  %17 = phi ptr [ %14, %11 ], [ null, %15 ]
  store ptr %17, ptr %4, align 8, !tbaa !26
  br label %18

18:                                               ; preds = %33, %16
  %19 = load ptr, ptr %3, align 8, !tbaa !26
  %20 = icmp ne ptr %19, null
  br i1 %20, label %21, label %35

21:                                               ; preds = %18
  %22 = load ptr, ptr %2, align 8, !tbaa !3
  %23 = load ptr, ptr %3, align 8, !tbaa !26
  call void @Mvc_CubeFree(ptr noundef %22, ptr noundef %23)
  br label %24

24:                                               ; preds = %21
  %25 = load ptr, ptr %4, align 8, !tbaa !26
  store ptr %25, ptr %3, align 8, !tbaa !26
  %26 = load ptr, ptr %3, align 8, !tbaa !26
  %27 = icmp ne ptr %26, null
  br i1 %27, label %28, label %32

28:                                               ; preds = %24
  %29 = load ptr, ptr %3, align 8, !tbaa !26
  %30 = getelementptr inbounds nuw %struct.MvcCubeStruct, ptr %29, i32 0, i32 0
  %31 = load ptr, ptr %30, align 8, !tbaa !30
  br label %33

32:                                               ; preds = %24
  br label %33

33:                                               ; preds = %32, %28
  %34 = phi ptr [ %31, %28 ], [ null, %32 ]
  store ptr %34, ptr %4, align 8, !tbaa !26
  br label %18, !llvm.loop !32

35:                                               ; preds = %18
  %36 = load ptr, ptr %2, align 8, !tbaa !3
  %37 = getelementptr inbounds nuw %struct.MvcCoverStruct, ptr %36, i32 0, i32 3
  %38 = getelementptr inbounds nuw %struct.MvcListStruct, ptr %37, i32 0, i32 2
  store i32 0, ptr %38, align 8, !tbaa !17
  %39 = load ptr, ptr %2, align 8, !tbaa !3
  %40 = getelementptr inbounds nuw %struct.MvcCoverStruct, ptr %39, i32 0, i32 3
  %41 = getelementptr inbounds nuw %struct.MvcListStruct, ptr %40, i32 0, i32 0
  store ptr null, ptr %41, align 8, !tbaa !18
  %42 = load ptr, ptr %2, align 8, !tbaa !3
  %43 = getelementptr inbounds nuw %struct.MvcCoverStruct, ptr %42, i32 0, i32 3
  %44 = getelementptr inbounds nuw %struct.MvcListStruct, ptr %43, i32 0, i32 1
  store ptr null, ptr %44, align 8, !tbaa !19
  call void @llvm.lifetime.end.p0(i64 8, ptr %4) #4
  call void @llvm.lifetime.end.p0(i64 8, ptr %3) #4
  ret void
}