; Function Attrs: nounwind uwtable
define void @Mvc_CoverMakeEmpty(ptr noundef %0) local_unnamed_addr #7 {
  %2 = getelementptr inbounds nuw i8, ptr %0, i64 16
  %3 = load ptr, ptr %2, align 8, !tbaa !16
  %.not = icmp eq ptr %3, null
  br i1 %.not, label %._crit_edge, label %.lr.ph

.lr.ph:                                           ; preds = %1, %.lr.ph
  %.018.sink = phi ptr [ %4, %.lr.ph ], [ %3, %1 ]
  %4 = load ptr, ptr %.018.sink, align 8, !tbaa !26
  tail call void @Mvc_CubeFree(ptr noundef %0, ptr noundef nonnull %.018.sink) #10
  %.not15 = icmp eq ptr %4, null
  br i1 %.not15, label %._crit_edge, label %.lr.ph, !llvm.loop !28

._crit_edge:                                      ; preds = %.lr.ph, %1
  tail call void @llvm.memset.p0.i64(ptr noundef nonnull align 8 dereferenceable(20) %2, i8 0, i64 20, i1 false)
  ret void
}